; Function Attrs: mustprogress nounwind uwtable
define hidden void @_ZN6Assimp11PlyExporterD2Ev(ptr noundef nonnull align 8 dereferenceable(440) %this) unnamed_addr #4 align 2 {
entry:
  %endl = getelementptr inbounds i8, ptr %this, i64 408
  tail call void @_ZNSt7__cxx1112basic_stringIcSt11char_traitsIcESaIcEED1Ev(ptr noundef nonnull align 8 dereferenceable(32) %endl) #11
  %filename = getelementptr inbounds i8, ptr %this, i64 376
  tail call void @_ZNSt7__cxx1112basic_stringIcSt11char_traitsIcESaIcEED1Ev(ptr noundef nonnull align 8 dereferenceable(32) %filename) #11
  tail call void @_ZNSt7__cxx1119basic_ostringstreamIcSt11char_traitsIcESaIcEED1Ev(ptr noundef nonnull align 8 dereferenceable(112) %this) #11
  ret void
}